target datalayout = "e-m:e-p270:32:32-p271:32:32-p272:64:64-i64:64-i128:128-f80:128-n8:16:32:64-S128"
target triple = "x86_64-pc-linux-gnu"

@_ZZL10py_an_initP8py_annoyP7_objectS2_E6kwlist = internal global [3 x ptr] [ptr @.str.53, ptr @.str.54, ptr null], align 16
@.str.55 = private unnamed_addr constant [4 x i8] c"i|s\00", align 1

; Function Attrs: mustprogress sspstrong uwtable
define internal noundef i32 @_ZL10py_an_initP8py_annoyP7_objectS2_(ptr noundef %0, ptr noundef %1, ptr noundef %2) #2 {
  %4 = alloca i32, align 4
  %5 = alloca ptr, align 8
  %6 = alloca ptr, align 8
  %7 = alloca ptr, align 8
  %8 = alloca ptr, align 8
  %9 = alloca i32, align 4
  %10 = alloca i32, align 4
  store ptr %0, ptr %5, align 8, !tbaa !31
  store ptr %1, ptr %6, align 8, !tbaa !14
  store ptr %2, ptr %7, align 8, !tbaa !14
  call void @llvm.lifetime.start.p0(i64 8, ptr %8) #28
  store ptr null, ptr %8, align 8, !tbaa !54
  call void @llvm.lifetime.start.p0(i64 4, ptr %9) #28
  %11 = load ptr, ptr %6, align 8, !tbaa !14
  %12 = load ptr, ptr %7, align 8, !tbaa !14
  %13 = call i32 (ptr, ptr, ptr, ptr, ...) @PyArg_ParseTupleAndKeywords(ptr noundef %11, ptr noundef %12, ptr noundef @.str.55, ptr noundef @_ZZL10py_an_initP8py_annoyP7_objectS2_E6kwlist, ptr noundef %9, ptr noundef %8)
  %14 = icmp ne i32 %13, 0
  br i1 %14, label %16, label %15

15:                                               ; preds = %3
  store i32 0, ptr %4, align 4
  store i32 1, ptr %10, align 4
  br label %17

16:                                               ; preds = %3
  store i32 0, ptr %4, align 4
  store i32 1, ptr %10, align 4
  br label %17

17:                                               ; preds = %16, %15
  call void @llvm.lifetime.end.p0(i64 4, ptr %9) #28
  call void @llvm.lifetime.end.p0(i64 8, ptr %8) #28
  %18 = load i32, ptr %4, align 4
  ret i32 %18
}