; Function Attrs: mustprogress sspstrong uwtable
define internal noundef i32 @_ZL10py_an_initP8py_annoyP7_objectS2_(ptr readnone captures(none) %0, ptr noundef %1, ptr noundef %2) #2 {
  %4 = alloca ptr, align 8
  %5 = alloca i32, align 4
  call void @llvm.lifetime.start.p0(i64 8, ptr nonnull %4) #33
  store ptr null, ptr %4, align 8, !tbaa !41
  call void @llvm.lifetime.start.p0(i64 4, ptr nonnull %5) #33
  %6 = call i32 (ptr, ptr, ptr, ptr, ...) @PyArg_ParseTupleAndKeywords(ptr noundef %1, ptr noundef %2, ptr noundef nonnull @.str.55, ptr noundef nonnull @_ZZL10py_an_initP8py_annoyP7_objectS2_E6kwlist, ptr noundef nonnull %5, ptr noundef nonnull %4)
  call void @llvm.lifetime.end.p0(i64 4, ptr nonnull %5) #33
  call void @llvm.lifetime.end.p0(i64 8, ptr nonnull %4) #33
  ret i32 0
}